; Function Attrs: mustprogress uwtable
define void @_ZN3gmx25AbstractAnalysisArrayData14setColumnCountEi(ptr noundef nonnull align 8 dereferenceable(94) %0, i32 noundef %1) local_unnamed_addr #1 align 2 {
  %3 = getelementptr inbounds i8, ptr %0, i64 40
  %4 = load ptr, ptr %3, align 8
  %5 = getelementptr inbounds i8, ptr %0, i64 48
  %6 = load ptr, ptr %5, align 8
  %.not = icmp eq ptr %4, %6
  br i1 %.not, label %8, label %7

7:                                                ; preds = %2
  tail call void @_ZN3gmx8internal13assertHandlerEPKcS2_S2_S2_i(ptr noundef nonnull @.str.1, ptr noundef nonnull @.str.2, ptr noundef nonnull @"__PRETTY_FUNCTION__._ZZN3gmx25AbstractAnalysisArrayData14setColumnCountEiENK3$_0clEv", ptr noundef nonnull @.str.3, i32 noundef 84) #16
  unreachable

8:                                                ; preds = %2
  tail call void @_ZN3gmx20AbstractAnalysisData14setColumnCountEii(ptr noundef nonnull align 8 dereferenceable(16) %0, i32 noundef 0, i32 noundef %1)
  %9 = getelementptr inbounds i8, ptr %0, i64 20
  store i32 0, ptr %9, align 4
  %.sroa.2.0..sroa_idx = getelementptr inbounds i8, ptr %0, i64 24
  store i32 %1, ptr %.sroa.2.0..sroa_idx, align 8
  %.sroa.3.0..sroa_idx = getelementptr inbounds i8, ptr %0, i64 28
  store i32 0, ptr %.sroa.3.0..sroa_idx, align 4
  %.sroa.4.0..sroa_idx = getelementptr inbounds i8, ptr %0, i64 32
  store i32 0, ptr %.sroa.4.0..sroa_idx, align 8
  ret void
}